     1                                 %line 1+1 symacc.asm
     2                                 
     3                                 
     4                                 
     5                                 
     6                                 
     7                                 
     8                                 
     9                                 
    10                                 
    11                                 
    12                                 
    13                                 
    14                                 
    15                                 [global progr]
    16                                 [extern exit]
    17                                 
    18                                 
    19                                 
    20                                 
    21                                 
    22                                 
    23                                 
    24                                 [global LOOKS]
    25                                 [global GETS]
    26                                 [global PUTS]
    27                                 [global GETWRD]
    28                                 
    29                                 [global A2B40]
    30                                 [global A2B40L]
    31                                 [global B402A]
    32                                 
    33                                 [global COLLS]
    34                                 
    35                                 [global MASKV]
    36                                 [global MASKW]
    37                                 [global MOD40K]
    38                                 
    39                                 
    40                                 
    41                                 [section .data]
    42                                 TABLE:
    43 00000000 00000000<rept>          times 8192 dd 0
    44                                 
    45                                 STRING:
    46 00008000 00000000<rept>          times 7 dd 0
    47                                 
    48                                 I:
    49 0000801C 00000000                times 1 dd 0
    50                                 J:
    51 00008020 00000000                times 1 dd 0
    52                                 CHAR:
    53 00008024 00000000                times 1 dd 0
    54                                 LEN:
    55 00008028 00000000                times 1 dd 0
    56                                 B:
    57 0000802C 00000000                times 1 dd 0
    58                                 CODE:
    59 00008030 00000000                times 1 dd 0
    60                                 
    61                                 MASKE:
    62 00008034 FEFFFFFF                dd -2
    63                                 
    64                                 MASKV:
    65 00008038 FFFFFFFF                dd -1
    66                                 
    67                                 MASKW:
    68 0000803C 00000000                times 1 dd 0
    69                                 
    70                                 MOD40K:
    71 00008040 00000000                times 1 dd 0
    72                                 
    73                                 COLFLG:
    74 00008044 00000000                times 1 dd 0
    75                                 COLLS:
    76 00008048 00000000                dd 0
    77                                 
    78                                 ANC:
    79 0000804C 00000000                times 1 dd 0
    80                                 
    81                                 
    82                                 
    83                                 
    84                                 
    85                                 
    86                                 [section .text]
    87                                 
    88                                 A2B40:
    89 00000000 55                      push EBP
    90 00000001 89E5                    mov EBP,ESP
    91                                 
    92                                 
    93                                 
    94                                 
    95                                 
    96                                 
    97 00000003 8B5D08                  mov EBX,[EBP+8]
    98 00000006 8B03                    mov EAX,[EBX]
    99 00000008 A3[00000000]            mov [LEN],EAX
   100                                 
   101                                 
   102 0000000D A1[00000000]            mov EAX,[LEN]
   103 00000012 83E806                  sub EAX,6
   104 00000015 7E08                    jle LJ1
   105                                 
   106                                 
   107 00000017 B806000000              mov EAX,6
   108 0000001C A3[00000000]            mov [LEN],EAX
   109                                 
   110                                 LJ1:
   111                                 
   112                                 
   113 00000021 A1[00000000]            mov EAX,[LEN]
   114 00000026 A3[00000000]            mov [I],EAX
   115                                 
   116                                 
   117 0000002B B800000000              mov EAX,0
   118 00000030 A3[00000000]            mov [CODE],EAX
   119                                 
   120                                 LJ2:
   121                                 
   122 00000035 A1[00000000]            mov EAX,[I]
   123 0000003A 09C0                    or EAX,EAX
   124 0000003C 0F8E7D000000            jle LJ3
   125                                 
   126                                 
   127 00000042 A1[00000000]            mov EAX,[I]
   128 00000047 C1E002                  sal EAX,2
   129                                 
   130 0000004A 8B5D08                  mov EBX,[EBP+8]
   131 0000004D 01D8                    add EAX,EBX
   132 0000004F 8B00                    mov EAX,[EAX]
   133 00000051 A3[00000000]            mov [CHAR],EAX
   134                                 
   135                                 
   136 00000056 A1[00000000]            mov EAX,[CHAR]
   137 0000005B 83E839                  sub EAX,57
   138 0000005E 7F0D                    jg LJ4
   139                                 
   140                                 
   141 00000060 A1[00000000]            mov EAX,[CHAR]
   142 00000065 83E815                  sub EAX,21
   143 00000068 A3[00000000]            mov [B],EAX
   144                                 
   145 0000006D EB2E                    jmp LJ5
   146                                 LJ4:
   147                                 
   148 0000006F A1[00000000]            mov EAX,[CHAR]
   149 00000074 83E85A                  sub EAX,90
   150 00000077 7F0D                    jg LJ6
   151                                 
   152                                 
   153 00000079 A1[00000000]            mov EAX,[CHAR]
   154 0000007E 83E840                  sub EAX,64
   155 00000081 A3[00000000]            mov [B],EAX
   156                                 
   157 00000086 EB15                    jmp LJ7
   158                                 LJ6:
   159                                 
   160 00000088 A1[00000000]            mov EAX,[CHAR]
   161 0000008D 83E87A                  sub EAX,122
   162 00000090 7F0B                    jg LJ8
   163                                 
   164                                 
   165 00000092 A1[00000000]            mov EAX,[CHAR]
   166 00000097 83E860                  sub EAX,96
   167 0000009A A3[00000000]            mov [B],EAX
   168                                 
   169                                 LJ8:
   170                                 LJ7:
   171                                 LJ5:
   172                                 
   173                                 
   174 0000009F B828000000              mov EAX,40
   175 000000A4 F72D[00000000]          imul dword [CODE]
   176 000000AA 0305[00000000]          add EAX,[B]
   177 000000B0 A3[00000000]            mov [CODE],EAX
   178                                 
   179                                 
   180 000000B5 A1[00000000]            mov EAX,[I]
   181 000000BA 48                      dec EAX
   182 000000BB A3[00000000]            mov [I],EAX
   183                                 
   184 000000C0 E96BFFFFFF              jmp LJ2
   185                                 LJ3:
   186                                 
   187                                 
   188 000000C5 A1[00000000]            mov EAX,[CODE]
   189                                 
   190 000000CA 89EC                    mov ESP,EBP
   191 000000CC 5D                      pop EBP
   192 000000CD C3                      ret
   193                                 
   194                                 
   195                                 
   196                                 
   197                                 
   198                                 
   199                                 
   200                                 A2B40L:
   201 000000CE 55                      push EBP
   202 000000CF 89E5                    mov EBP,ESP
   203                                 
   204                                 
   205                                 
   206                                 
   207                                 
   208                                 
   209                                 
   210 000000D1 8B5D0C                  mov EBX,[EBP+12]
   211 000000D4 8B03                    mov EAX,[EBX]
   212 000000D6 25FF000000              and EAX,255
   213 000000DB A3[00000000]            mov [ANC],EAX
   214                                 
   215                                 
   216                                 
   217 000000E0 8B5D0C                  mov EBX,[EBP+12]
   218 000000E3 8B03                    mov EAX,[EBX]
   219 000000E5 C1F808                  sar EAX,8
   220 000000E8 25FF000000              and EAX,255
   221 000000ED A3[00000000]            mov [LEN],EAX
   222                                 
   223                                 
   224 000000F2 A1[00000000]            mov EAX,[LEN]
   225 000000F7 83E806                  sub EAX,6
   226 000000FA 7E08                    jle LJ9
   227                                 
   228                                 
   229 000000FC B806000000              mov EAX,6
   230 00000101 A3[00000000]            mov [LEN],EAX
   231                                 
   232                                 LJ9:
   233                                 
   234                                 
   235 00000106 A1[00000000]            mov EAX,[ANC]
   236 0000010B 0305[00000000]          add EAX,[LEN]
   237 00000111 48                      dec EAX
   238 00000112 A3[00000000]            mov [I],EAX
   239                                 
   240                                 
   241 00000117 B800000000              mov EAX,0
   242 0000011C A3[00000000]            mov [CODE],EAX
   243                                 
   244                                 LJ10:
   245                                 
   246 00000121 A1[00000000]            mov EAX,[I]
   247 00000126 2B05[00000000]          sub EAX,[ANC]
   248 0000012C 0F8C7D000000            jl LJ11
   249                                 
   250                                 
   251 00000132 A1[00000000]            mov EAX,[I]
   252 00000137 C1E002                  sal EAX,2
   253                                 
   254 0000013A 8B5D08                  mov EBX,[EBP+8]
   255 0000013D 01D8                    add EAX,EBX
   256 0000013F 8B00                    mov EAX,[EAX]
   257 00000141 A3[00000000]            mov [CHAR],EAX
   258                                 
   259                                 
   260 00000146 A1[00000000]            mov EAX,[CHAR]
   261 0000014B 83E839                  sub EAX,57
   262 0000014E 7F0D                    jg LJ12
   263                                 
   264                                 
   265 00000150 A1[00000000]            mov EAX,[CHAR]
   266 00000155 83E815                  sub EAX,21
   267 00000158 A3[00000000]            mov [B],EAX
   268                                 
   269 0000015D EB2E                    jmp LJ13
   270                                 LJ12:
   271                                 
   272 0000015F A1[00000000]            mov EAX,[CHAR]
   273 00000164 83E85A                  sub EAX,90
   274 00000167 7F0D                    jg LJ14
   275                                 
   276                                 
   277 00000169 A1[00000000]            mov EAX,[CHAR]
   278 0000016E 83E840                  sub EAX,64
   279 00000171 A3[00000000]            mov [B],EAX
   280                                 
   281 00000176 EB15                    jmp LJ15
   282                                 LJ14:
   283                                 
   284 00000178 A1[00000000]            mov EAX,[CHAR]
   285 0000017D 83E87A                  sub EAX,122
   286 00000180 7F0B                    jg LJ16
   287                                 
   288                                 
   289 00000182 A1[00000000]            mov EAX,[CHAR]
   290 00000187 83E860                  sub EAX,96
   291 0000018A A3[00000000]            mov [B],EAX
   292                                 
   293                                 LJ16:
   294                                 LJ15:
   295                                 LJ13:
   296                                 
   297                                 
   298 0000018F B828000000              mov EAX,40
   299 00000194 F72D[00000000]          imul dword [CODE]
   300 0000019A 0305[00000000]          add EAX,[B]
   301 000001A0 A3[00000000]            mov [CODE],EAX
   302                                 
   303                                 
   304 000001A5 A1[00000000]            mov EAX,[I]
   305 000001AA 48                      dec EAX
   306 000001AB A3[00000000]            mov [I],EAX
   307                                 
   308 000001B0 E967FFFFFF              jmp LJ10
   309                                 LJ11:
   310                                 
   311                                 
   312 000001B5 A1[00000000]            mov EAX,[CODE]
   313                                 
   314 000001BA 89EC                    mov ESP,EBP
   315 000001BC 5D                      pop EBP
   316 000001BD C3                      ret
   317                                 
   318                                 
   319                                 
   320                                 
   321                                 
   322                                 
   323                                 
   324                                 B402A:
   325 000001BE 55                      push EBP
   326 000001BF 89E5                    mov EBP,ESP
   327                                 
   328                                 
   329                                 
   330                                 
   331                                 
   332                                 
   333                                 
   334 000001C1 8B5D0C                  mov EBX,[EBP+12]
   335 000001C4 8B03                    mov EAX,[EBX]
   336 000001C6 A3[00000000]            mov [B],EAX
   337                                 
   338                                 
   339 000001CB A1[00000000]            mov EAX,[B]
   340 000001D0 09C0                    or EAX,EAX
   341 000001D2 7D3F                    jge LJ17
   342                                 
   343                                 
   344 000001D4 A1[00000000]            mov EAX,[B]
   345 000001D9 2305[00000000]          and EAX,[MASKW]
   346 000001DF 83C008                  add EAX,8
   347 000001E2 A3[00000000]            mov [B],EAX
   348                                 
   349                                 
   350 000001E7 A1[00000000]            mov EAX,[B]
   351 000001EC 99                      cdq
   352 000001ED B928000000              mov ECX,40
   353 000001F2 F7F9                    idiv dword ECX
   354 000001F4 89D0                    mov EAX,EDX
   355 000001F6 A3[00000000]            mov [CHAR],EAX
   356                                 
   357                                 
   358 000001FB A1[00000000]            mov EAX,[B]
   359 00000200 99                      cdq
   360 00000201 B928000000              mov ECX,40
   361 00000206 F7F9                    idiv dword ECX
   362 00000208 0305[00000000]          add EAX,[MOD40K]
   363 0000020E A3[00000000]            mov [B],EAX
   364                                 
   365 00000213 EB24                    jmp LJ18
   366                                 LJ17:
   367                                 
   368                                 
   369 00000215 A1[00000000]            mov EAX,[B]
   370 0000021A 99                      cdq
   371 0000021B B928000000              mov ECX,40
   372 00000220 F7F9                    idiv dword ECX
   373 00000222 89D0                    mov EAX,EDX
   374 00000224 A3[00000000]            mov [CHAR],EAX
   375                                 
   376                                 
   377 00000229 A1[00000000]            mov EAX,[B]
   378 0000022E 99                      cdq
   379 0000022F B928000000              mov ECX,40
   380 00000234 F7F9                    idiv dword ECX
   381 00000236 A3[00000000]            mov [B],EAX
   382                                 
   383                                 LJ18:
   384                                 
   385                                 
   386 0000023B B801000000              mov EAX,1
   387 00000240 A3[00000000]            mov [I],EAX
   388                                 
   389                                 LJ19:
   390                                 
   391                                 
   392 00000245 A1[00000000]            mov EAX,[CHAR]
   393 0000024A 83E81A                  sub EAX,26
   394                                 
   395 0000024D 7F0D                    jg LJ21
   396                                 
   397 0000024F A1[00000000]            mov EAX,[CHAR]
   398 00000254 83C040                  add EAX,64
   399 00000257 A3[00000000]            mov [CHAR],EAX
   400                                 
   401 0000025C EB0B                    jmp LJ22
   402                                 LJ21:
   403                                 
   404 0000025E A1[00000000]            mov EAX,[CHAR]
   405 00000263 83C015                  add EAX,21
   406 00000266 A3[00000000]            mov [CHAR],EAX
   407                                 
   408                                 LJ22:
   409                                 
   410                                 
   411 0000026B A1[00000000]            mov EAX,[I]
   412 00000270 C1E002                  sal EAX,2
   413                                 
   414 00000273 8B5D08                  mov EBX,[EBP+8]
   415 00000276 01D8                    add EAX,EBX
   416 00000278 A3[00000000]            mov [T5Z],EAX
   417 0000027D A1[00000000]            mov EAX,[CHAR]
   418 00000282 89C2                    mov EDX,EAX
   419 00000284 A1[00000000]            mov EAX,[T5Z]
   420 00000289 8910                    mov [EAX],EDX
   421                                 
   422                                 
   423 0000028B A1[00000000]            mov EAX,[I]
   424 00000290 40                      inc EAX
   425 00000291 A3[00000000]            mov [I],EAX
   426                                 
   427                                 
   428 00000296 A1[00000000]            mov EAX,[B]
   429 0000029B 99                      cdq
   430 0000029C B928000000              mov ECX,40
   431 000002A1 F7F9                    idiv dword ECX
   432 000002A3 89D0                    mov EAX,EDX
   433 000002A5 A3[00000000]            mov [CHAR],EAX
   434                                 
   435                                 
   436 000002AA A1[00000000]            mov EAX,[B]
   437 000002AF 99                      cdq
   438 000002B0 B928000000              mov ECX,40
   439 000002B5 F7F9                    idiv dword ECX
   440 000002B7 A3[00000000]            mov [B],EAX
   441                                 
   442                                 
   443 000002BC A1[00000000]            mov EAX,[CHAR]
   444 000002C1 09C0                    or EAX,EAX
   445                                 
   446 000002C3 7500                    jne LJ23
   447 000002C5 EB0C                    jmp LJ20
   448                                 
   449                                 LJ23:
   450                                 
   451                                 
   452 000002C7 A1[00000000]            mov EAX,[I]
   453 000002CC 83E806                  sub EAX,6
   454 000002CF 0F8E6AFFFFFF            jle LJ19
   455                                 LJ20:
   456                                 
   457                                 
   458 000002D5 A1[00000000]            mov EAX,[I]
   459 000002DA 48                      dec EAX
   460                                 
   461 000002DB 8B5D08                  mov EBX,[EBP+8]
   462 000002DE 8903                    mov [EBX],EAX
   463                                 
   464                                 
   465 000002E0 89EC                    mov ESP,EBP
   466 000002E2 5D                      pop EBP
   467 000002E3 C3                      ret
   468                                 
   469                                 [section .data]
   470                                 T5Z:
   471 00008050 00000000<rept>          times 2 dd 0
   472                                 [section .text]
   473                                 
   474                                 
   475                                 
   476                                 
   477                                 
   478                                 
   479                                 
   480                                 
   481                                 
   482                                 LOOKS:
   483 000002E4 55                      push EBP
   484 000002E5 89E5                    mov EBP,ESP
   485                                 
   486                                 
   487                                 
   488                                 
   489                                 
   490                                 
   491                                 
   492 000002E7 B800000000              mov EAX,0
   493 000002EC A3[00000000]            mov [COLFLG],EAX
   494                                 
   495                                 
   496                                 
   497 000002F1 8B5D10                  mov EBX,[EBP+16]
   498 000002F4 8B03                    mov EAX,[EBX]
   499 000002F6 A3[00000000]            mov [J],EAX
   500                                 
   501                                 
   502 000002FB A1[00000000]            mov EAX,[J]
   503 00000300 09C0                    or EAX,EAX
   504 00000302 7D11                    jge LJ24
   505                                 
   506                                 
   507 00000304 A1[00000000]            mov EAX,[J]
   508 00000309 2305[00000000]          and EAX,[MASKW]
   509 0000030F 83C020                  add EAX,32
   510 00000312 A3[00000000]            mov [J],EAX
   511                                 
   512                                 LJ24:
   513                                 
   514                                 
   515 00000317 A1[00000000]            mov EAX,[J]
   516                                 
   517 0000031C 99                      cdq
   518 0000031D B9FF1F0000              mov ECX,8191
   519 00000322 F7F9                    idiv dword ECX
   520 00000324 89D0                    mov EAX,EDX
   521 00000326 2305[00000000]          and EAX,[MASKE]
   522 0000032C A3[00000000]            mov [I],EAX
   523                                 
   524                                 
   525 00000331 A1[00000000]            mov EAX,[I]
   526 00000336 A3[00000000]            mov [J],EAX
   527                                 
   528                                 LJ25:
   529                                 
   530                                 
   531 0000033B A1[00000000]            mov EAX,[I]
   532 00000340 C1E002                  sal EAX,2
   533 00000343 05[00000000]            add EAX,TABLE
   534 00000348 8B00                    mov EAX,[EAX]
   535 0000034A 09C0                    or EAX,EAX
   536                                 
   537 0000034C 0F858E000000            jne LJ27
   538                                 
   539 00000352 A1[00000000]            mov EAX,[I]
   540 00000357 C1E002                  sal EAX,2
   541 0000035A 05[00000000]            add EAX,TABLE
   542 0000035F A3[00000000]            mov [T7Z],EAX
   543                                 
   544 00000364 8B5D10                  mov EBX,[EBP+16]
   545 00000367 8B03                    mov EAX,[EBX]
   546 00000369 89C2                    mov EDX,EAX
   547 0000036B A1[00000000]            mov EAX,[T7Z]
   548 00000370 8910                    mov [EAX],EDX
   549                                 
   550                                 
   551                                 
   552 00000372 8B5D08                  mov EBX,[EBP+8]
   553 00000375 8B03                    mov EAX,[EBX]
   554 00000377 09C0                    or EAX,EAX
   555                                 
   556 00000379 7429                    jz LJ28
   557                                 
   558 0000037B A1[00000000]            mov EAX,[I]
   559 00000380 40                      inc EAX
   560 00000381 C1E002                  sal EAX,2
   561 00000384 05[00000000]            add EAX,TABLE
   562 00000389 A3[00000000]            mov [T7Z1],EAX
   563                                 
   564 0000038E 8B5D08                  mov EBX,[EBP+8]
   565 00000391 8B03                    mov EAX,[EBX]
   566 00000393 C1E010                  sal EAX,16
   567                                 
   568 00000396 8B5D0C                  mov EBX,[EBP+12]
   569 00000399 0B03                    or EAX,[EBX]
   570 0000039B 89C2                    mov EDX,EAX
   571 0000039D A1[00000000]            mov EAX,[T7Z1]
   572 000003A2 8910                    mov [EAX],EDX
   573                                 
   574 000003A4 EB1F                    jmp LJ29
   575                                 LJ28:
   576                                 
   577 000003A6 A1[00000000]            mov EAX,[I]
   578 000003AB 40                      inc EAX
   579 000003AC C1E002                  sal EAX,2
   580 000003AF 05[00000000]            add EAX,TABLE
   581 000003B4 A3[00000000]            mov [T7Z],EAX
   582 000003B9 B800000000              mov EAX,0
   583 000003BE 89C2                    mov EDX,EAX
   584 000003C0 A1[00000000]            mov EAX,[T7Z]
   585 000003C5 8910                    mov [EAX],EDX
   586                                 
   587                                 LJ29:
   588                                 
   589                                 
   590 000003C7 A1[00000000]            mov EAX,[COLFLG]
   591 000003CC 09C0                    or EAX,EAX
   592 000003CE 7409                    jz LJ30
   593                                 
   594                                 
   595 000003D0 A1[00000000]            mov EAX,[COLLS]
   596 000003D5 40                      inc EAX
   597 000003D6 A3[00000000]            mov [COLLS],EAX
   598                                 
   599                                 LJ30:
   600                                 
   601                                 
   602 000003DB A1[00000000]            mov EAX,[I]
   603                                 
   604 000003E0 89EC                    mov ESP,EBP
   605 000003E2 5D                      pop EBP
   606 000003E3 C3                      ret
   607                                 
   608 000003E4 EB55                    jmp LJ31
   609                                 LJ27:
   610                                 
   611 000003E6 A1[00000000]            mov EAX,[I]
   612 000003EB C1E002                  sal EAX,2
   613 000003EE 05[00000000]            add EAX,TABLE
   614 000003F3 8B00                    mov EAX,[EAX]
   615                                 
   616 000003F5 8B5D10                  mov EBX,[EBP+16]
   617 000003F8 2B03                    sub EAX,[EBX]
   618                                 
   619 000003FA 753F                    jne LJ32
   620                                 
   621 000003FC A1[00000000]            mov EAX,[I]
   622 00000401 40                      inc EAX
   623 00000402 C1E002                  sal EAX,2
   624 00000405 05[00000000]            add EAX,TABLE
   625 0000040A 8B00                    mov EAX,[EAX]
   626 0000040C A3[00000000]            mov [B],EAX
   627                                 
   628                                 
   629 00000411 A1[00000000]            mov EAX,[B]
   630 00000416 2305[00000000]          and EAX,[MASKV]
   631                                 
   632 0000041C 8B5D0C                  mov EBX,[EBP+12]
   633 0000041F 8903                    mov [EBX],EAX
   634                                 
   635                                 
   636 00000421 A1[00000000]            mov EAX,[B]
   637 00000426 C1F810                  sar EAX,16
   638 00000429 2305[00000000]          and EAX,[MASKV]
   639                                 
   640 0000042F 8B5D08                  mov EBX,[EBP+8]
   641 00000432 8903                    mov [EBX],EAX
   642                                 
   643                                 
   644 00000434 A1[00000000]            mov EAX,[I]
   645                                 
   646 00000439 89EC                    mov ESP,EBP
   647 0000043B 5D                      pop EBP
   648 0000043C C3                      ret
   649                                 
   650                                 LJ32:
   651                                 LJ31:
   652                                 
   653                                 
   654 0000043D A1[00000000]            mov EAX,[I]
   655 00000442 83C002                  add EAX,2
   656 00000445 A3[00000000]            mov [I],EAX
   657                                 
   658                                 
   659 0000044A B801000000              mov EAX,1
   660 0000044F A3[00000000]            mov [COLFLG],EAX
   661                                 
   662                                 
   663 00000454 A1[00000000]            mov EAX,[I]
   664 00000459 2DFF1F0000              sub EAX,8191
   665                                 
   666 0000045E 7E0D                    jle LJ33
   667                                 
   668 00000460 A1[00000000]            mov EAX,[I]
   669 00000465 2DFF1F0000              sub EAX,8191
   670 0000046A A3[00000000]            mov [I],EAX
   671                                 
   672                                 LJ33:
   673                                 
   674                                 
   675 0000046F A1[00000000]            mov EAX,[I]
   676 00000474 2B05[00000000]          sub EAX,[J]
   677 0000047A 0F85B5FEFFFF            jne LJ25
   678                                 LJ26:
   679                                 
   680                                 
   681 00000480 B801000000              mov EAX,1
   682 00000485 F7D8                    neg EAX
   683                                 
   684 00000487 89EC                    mov ESP,EBP
   685 00000489 5D                      pop EBP
   686 0000048A C3                      ret
   687                                 
   688                                 [section .data]
   689                                 T7Z:
   690 00008058 00000000<rept>          times 2 dd 0
   691                                 [section .text]
   692                                 [section .data]
   693                                 T7Z1:
   694 00008060 00000000                times 1 dd 0
   695                                 [section .text]
   696                                 
   697                                 
   698                                 
   699                                 
   700                                 
   701                                 
   702                                 GETS:
   703 0000048B 55                      push EBP
   704 0000048C 89E5                    mov EBP,ESP
   705                                 
   706                                 
   707                                 
   708                                 
   709                                 
   710                                 
   711                                 
   712                                 
   713 0000048E 8B5D10                  mov EBX,[EBP+16]
   714 00000491 8B03                    mov EAX,[EBX]
   715 00000493 40                      inc EAX
   716 00000494 C1E002                  sal EAX,2
   717 00000497 05[00000000]            add EAX,TABLE
   718 0000049C 8B00                    mov EAX,[EAX]
   719 0000049E A3[00000000]            mov [B],EAX
   720                                 
   721                                 
   722 000004A3 A1[00000000]            mov EAX,[B]
   723 000004A8 2305[00000000]          and EAX,[MASKV]
   724                                 
   725 000004AE 8B5D0C                  mov EBX,[EBP+12]
   726 000004B1 8903                    mov [EBX],EAX
   727                                 
   728                                 
   729 000004B3 A1[00000000]            mov EAX,[B]
   730 000004B8 C1F810                  sar EAX,16
   731 000004BB 2305[00000000]          and EAX,[MASKV]
   732                                 
   733 000004C1 8B5D08                  mov EBX,[EBP+8]
   734 000004C4 8903                    mov [EBX],EAX
   735                                 
   736                                 
   737 000004C6 89EC                    mov ESP,EBP
   738 000004C8 5D                      pop EBP
   739 000004C9 C3                      ret
   740                                 
   741                                 
   742                                 
   743                                 
   744                                 
   745                                 
   746                                 
   747                                 PUTS:
   748 000004CA 55                      push EBP
   749 000004CB 89E5                    mov EBP,ESP
   750                                 
   751                                 
   752                                 
   753                                 
   754                                 
   755                                 
   756                                 
   757                                 
   758 000004CD 8B5D10                  mov EBX,[EBP+16]
   759 000004D0 8B03                    mov EAX,[EBX]
   760 000004D2 40                      inc EAX
   761 000004D3 C1E002                  sal EAX,2
   762 000004D6 05[00000000]            add EAX,TABLE
   763 000004DB A3[00000000]            mov [T11Z1],EAX
   764                                 
   765 000004E0 8B5D08                  mov EBX,[EBP+8]
   766 000004E3 8B03                    mov EAX,[EBX]
   767 000004E5 C1E010                  sal EAX,16
   768                                 
   769 000004E8 8B5D0C                  mov EBX,[EBP+12]
   770 000004EB 0B03                    or EAX,[EBX]
   771 000004ED 89C2                    mov EDX,EAX
   772 000004EF A1[00000000]            mov EAX,[T11Z1]
   773 000004F4 8910                    mov [EAX],EDX
   774                                 
   775                                 
   776 000004F6 89EC                    mov ESP,EBP
   777 000004F8 5D                      pop EBP
   778 000004F9 C3                      ret
   779                                 
   780                                 [section .data]
   781                                 T11Z1:
   782 00008064 00000000                times 1 dd 0
   783                                 [section .text]
   784                                 
   785                                 
   786                                 
   787                                 
   788                                 
   789                                 
   790                                 GETWRD:
   791 000004FA 55                      push EBP
   792 000004FB 89E5                    mov EBP,ESP
   793                                 
   794                                 
   795                                 
   796                                 
   797                                 
   798                                 
   799                                 
   800 000004FD 8B5D0C                  mov EBX,[EBP+12]
   801 00000500 8B03                    mov EAX,[EBX]
   802 00000502 C1E002                  sal EAX,2
   803 00000505 05[00000000]            add EAX,TABLE
   804 0000050A 8B00                    mov EAX,[EAX]
   805                                 
   806 0000050C 8B5D08                  mov EBX,[EBP+8]
   807 0000050F 8903                    mov [EBX],EAX
   808                                 
   809                                 
   810 00000511 89EC                    mov ESP,EBP
   811 00000513 5D                      pop EBP
   812 00000514 C3                      ret
   813                                 
   814                                 
   815                                 
   816                                  end
