     1                                 %line 1+1 initsym.asm
     2                                 
     3                                 
     4                                 
     5                                 
     6                                 
     7                                 
     8                                 
     9                                 
    10                                 
    11                                 
    12                                 [global progr]
    13                                 [extern exit]
    14                                 
    15                                 [global INITSYM]
    16                                 
    17                                 [global DMPLIST]
    18                                 
    19                                 [global BUFF]
    20                                 
    21                                 
    22                                 [extern READ]
    23                                 [extern WRITE]
    24                                 
    25                                 [extern LEX]
    26                                 
    27                                 [extern A2B40]
    28                                 [extern B402A]
    29                                 
    30                                 [extern A2B40L]
    31                                 
    32                                 [extern LOOKS]
    33                                 [extern GETS]
    34                                 [extern PUTS]
    35                                 [extern GETWRD]
    36                                 
    37                                 [extern IREAD]
    38                                 [extern IFORM]
    39                                 [extern CAT2]
    40                                 
    41                                 [extern COLLS]
    42                                 [extern MASKV]
    43                                 
    44                                 
    45                                 [section .data]
    46                                 I:
    47 00000000 00000000                times 1 dd 0
    48                                 J:
    49 00000004 00000000                times 1 dd 0
    50                                 EOF:
    51 00000008 00000000                dd 0
    52                                 STATUS:
    53 0000000C 00000000                times 1 dd 0
    54                                 
    55                                 BUFF:
    56 00000010 00000000<rept>          times 128 dd 0
    57                                 
    58                                 INCH:
    59 00000210 01000000                dd 1
    60                                 SCRCH:
    61 00000214 02000000                dd 2
    62                                 OUTCH:
    63 00000218 03000000                dd 3
    64                                 
    65                                 LEXEME:
    66 0000021C 00000000<rept>          times 5 dd 0
    67                                 
    68                                 INDEX:
    69 00000230 00000000                times 1 dd 0
    70                                 WORDS:
    71 00000234 00000000                times 1 dd 0
    72                                 LKIND:
    73 00000238 00000000                times 1 dd 0
    74                                 TTYPE:
    75 0000023C 00000000                times 1 dd 0
    76                                 TAG:
    77 00000240 00000000                times 1 dd 0
    78                                 TAGS:
    79 00000244 00000000                times 1 dd 0
    80                                 VAL:
    81 00000248 00000000                times 1 dd 0
    82                                 ATTR:
    83 0000024C 00000000                times 1 dd 0
    84                                 OP:
    85 00000250 00000000                times 1 dd 0
    86                                 
    87                                 COUNT:
    88 00000254 00000000                dd 0
    89                                 LIST:
    90 00000258 00000000<rept>          times 61 dd 0
    91                                 
    92                                 STAR:
    93 0000034C 2A000000                dd 42
    94                                 
    95                                 DOT:
    96 00000350 2E000000                dd 46
    97                                 
    98                                 QUOTE:
    99 00000354 27000000                dd 39
   100                                 
   101                                 BLANKS:
   102 00000358 0A000000                dd 10
   103 0000035C 20000000                dd 32
   104 00000360 20000000                dd 32
   105 00000364 20000000                dd 32
   106 00000368 20000000                dd 32
   107 0000036C 20000000                dd 32
   108 00000370 20000000                dd 32
   109 00000374 20000000                dd 32
   110 00000378 20000000                dd 32
   111 0000037C 20000000                dd 32
   112 00000380 20000000                dd 32
   113                                 
   114                                 SCRATCH:
   115 00000384 0A000000                dd 10
   116 00000388 20000000                dd 32
   117 0000038C 20000000                dd 32
   118 00000390 20000000                dd 32
   119 00000394 20000000                dd 32
   120 00000398 20000000                dd 32
   121 0000039C 20000000                dd 32
   122 000003A0 20000000                dd 32
   123 000003A4 20000000                dd 32
   124 000003A8 20000000                dd 32
   125 000003AC 20000000                dd 32
   126                                 
   127                                 COLLISIONS:
   128 000003B0 0C000000                dd 12
   129 000003B4 43000000                dd 67
   130 000003B8 6F000000                dd 111
   131 000003BC 6C000000                dd 108
   132 000003C0 6C000000                dd 108
   133 000003C4 69000000                dd 105
   134 000003C8 73000000                dd 115
   135 000003CC 69000000                dd 105
   136 000003D0 6F000000                dd 111
   137 000003D4 6E000000                dd 110
   138 000003D8 73000000                dd 115
   139 000003DC 3A000000                dd 58
   140 000003E0 20000000                dd 32
   141                                 
   142                                 
   143                                 ANC:
   144 000003E4 00000000                times 1 dd 0
   145                                 
   146                                 
   147                                 
   148                                 [section .text]
   149                                 
   150                                 INITSYM:
   151 00000000 55                      push EBP
   152 00000001 89E5                    mov EBP,ESP
   153                                 
   154                                 
   155                                 
   156                                 
   157 00000003 B8FF7F0000              mov EAX,32767
   158 00000008 D1E0                    sal EAX,1
   159 0000000A 83C801                  or EAX,1
   160 0000000D A3[00000000]            mov [MASKV],EAX
   161                                 
   162                                 
   163                                 
   164 00000012 68[00000000]            push SCRCH
   165 00000017 68[00000000]            push BUFF
   166 0000001C E8(F6FFFFFF)            call READ
   167 00000021 83C408                  add ESP,4*2
   168 00000024 A3[00000000]            mov [STATUS],EAX
   169                                 
   170                                 LJ2:
   171                                 
   172 00000029 A1[00000000]            mov EAX,[STATUS]
   173 0000002E 2B05[00000000]          sub EAX,[EOF]
   174 00000034 0F840A020000            jz LJ3
   175                                 
   176                                 
   177 0000003A B801000000              mov EAX,1
   178 0000003F C1E002                  sal EAX,2
   179 00000042 05[00000000]            add EAX,BUFF
   180 00000047 8B00                    mov EAX,[EAX]
   181 00000049 2B05[00000000]          sub EAX,[STAR]
   182                                 
   183 0000004F 0F84D3010000            jz LJ4
   184                                 
   185                                 
   186 00000055 B801000000              mov EAX,1
   187 0000005A A3[00000000]            mov [I],EAX
   188                                 
   189                                 
   190                                 
   191                                 
   192 0000005F 68[00000000]            push I
   193 00000064 68[00000000]            push LEXEME
   194 00000069 E8(F6FFFFFF)            call LEX
   195 0000006E 83C408                  add ESP,4*2
   196 00000071 A3[00000000]            mov [LKIND],EAX
   197                                 
   198                                 
   199 00000076 A1[00000000]            mov EAX,[LEXEME]
   200 0000007B 25FF000000              and EAX,255
   201 00000080 A3[00000000]            mov [ANC],EAX
   202                                 
   203                                 
   204 00000085 A1[00000000]            mov EAX,[ANC]
   205 0000008A C1E002                  sal EAX,2
   206 0000008D 05[00000000]            add EAX,BUFF
   207 00000092 8B00                    mov EAX,[EAX]
   208 00000094 2B05[00000000]          sub EAX,[QUOTE]
   209 0000009A 753E                    jne LJ6
   210                                 
   211                                 
   212 0000009C A1[00000000]            mov EAX,[ANC]
   213 000000A1 40                      inc EAX
   214 000000A2 C1E002                  sal EAX,2
   215 000000A5 05[00000000]            add EAX,BUFF
   216 000000AA 8B00                    mov EAX,[EAX]
   217 000000AC 6BC03D                  imul EAX,61
   218 000000AF A3[00000000]            mov [WORDS],EAX
   219                                 
   220                                 
   221 000000B4 B801000000              mov EAX,1
   222 000000B9 A3[00000000]            mov [TAGS],EAX
   223                                 
   224                                 
   225                                 
   226 000000BE 68[00000000]            push WORDS
   227 000000C3 68[00000000]            push VAL
   228 000000C8 68[00000000]            push TAG
   229 000000CD E8(F6FFFFFF)            call LOOKS
   230 000000D2 83C40C                  add ESP,4*3
   231 000000D5 A3[00000000]            mov [INDEX],EAX
   232                                 
   233 000000DA EB33                    jmp LJ8
   234                                 LJ6:
   235                                 
   236                                 
   237                                 
   238 000000DC 68[00000000]            push LEXEME
   239 000000E1 68[00000000]            push BUFF
   240 000000E6 E8(F6FFFFFF)            call A2B40L
   241 000000EB 83C408                  add ESP,4*2
   242 000000EE A3[00000000]            mov [WORDS],EAX
   243                                 
   244                                 
   245 000000F3 B800000000              mov EAX,0
   246 000000F8 A3[00000000]            mov [TAGS],EAX
   247                                 
   248                                 
   249 000000FD B801000000              mov EAX,1
   250 00000102 C1E002                  sal EAX,2
   251 00000105 05[00000000]            add EAX,LEXEME
   252 0000010A 8B00                    mov EAX,[EAX]
   253 0000010C A3[00000000]            mov [INDEX],EAX
   254                                 
   255                                 LJ8:
   256                                 
   257                                 
   258                                 
   259                                 
   260 00000111 68[00000000]            push I
   261 00000116 68[00000000]            push LEXEME
   262 0000011B E8(F6FFFFFF)            call LEX
   263 00000120 83C408                  add ESP,4*2
   264 00000123 A3[00000000]            mov [LKIND],EAX
   265                                 
   266                                 
   267 00000128 B801000000              mov EAX,1
   268 0000012D C1E002                  sal EAX,2
   269 00000130 05[00000000]            add EAX,LEXEME
   270 00000135 8B00                    mov EAX,[EAX]
   271 00000137 A3[00000000]            mov [TTYPE],EAX
   272                                 
   273                                 
   274                                 
   275                                 
   276 0000013C 68[00000000]            push I
   277 00000141 68[00000000]            push LEXEME
   278 00000146 E8(F6FFFFFF)            call LEX
   279 0000014B 83C408                  add ESP,4*2
   280 0000014E A3[00000000]            mov [LKIND],EAX
   281                                 
   282                                 
   283 00000153 B801000000              mov EAX,1
   284 00000158 C1E002                  sal EAX,2
   285 0000015B 05[00000000]            add EAX,LEXEME
   286 00000160 8B00                    mov EAX,[EAX]
   287 00000162 A3[00000000]            mov [VAL],EAX
   288                                 
   289                                 
   290                                 
   291                                 
   292 00000167 68[00000000]            push I
   293 0000016C 68[00000000]            push LEXEME
   294 00000171 E8(F6FFFFFF)            call LEX
   295 00000176 83C408                  add ESP,4*2
   296 00000179 A3[00000000]            mov [LKIND],EAX
   297                                 
   298                                 
   299 0000017E B801000000              mov EAX,1
   300 00000183 C1E002                  sal EAX,2
   301 00000186 05[00000000]            add EAX,LEXEME
   302 0000018B 8B00                    mov EAX,[EAX]
   303 0000018D A3[00000000]            mov [LKIND],EAX
   304                                 
   305                                 
   306 00000192 A1[00000000]            mov EAX,[TAGS]
   307 00000197 C1E004                  sal EAX,4
   308 0000019A 0B05[00000000]          or EAX,[TTYPE]
   309 000001A0 C1E008                  sal EAX,8
   310 000001A3 0B05[00000000]          or EAX,[LKIND]
   311 000001A9 A3[00000000]            mov [TAG],EAX
   312                                 
   313                                 
   314                                 
   315                                 
   316 000001AE 68[00000000]            push I
   317 000001B3 68[00000000]            push LEXEME
   318 000001B8 E8(F6FFFFFF)            call LEX
   319 000001BD 83C408                  add ESP,4*2
   320 000001C0 A3[00000000]            mov [LKIND],EAX
   321                                 
   322                                 
   323 000001C5 B801000000              mov EAX,1
   324 000001CA C1E002                  sal EAX,2
   325 000001CD 05[00000000]            add EAX,LEXEME
   326 000001D2 8B00                    mov EAX,[EAX]
   327 000001D4 A3[00000000]            mov [ATTR],EAX
   328                                 
   329                                 
   330 000001D9 A1[00000000]            mov EAX,[ATTR]
   331 000001DE C1E008                  sal EAX,8
   332 000001E1 0B05[00000000]          or EAX,[VAL]
   333 000001E7 A3[00000000]            mov [VAL],EAX
   334                                 
   335                                 
   336                                 
   337 000001EC 68[00000000]            push INDEX
   338 000001F1 68[00000000]            push VAL
   339 000001F6 68[00000000]            push TAG
   340 000001FB E8(F6FFFFFF)            call PUTS
   341 00000200 83C40C                  add ESP,4*3
   342                                 
   343                                 
   344 00000203 A1[00000000]            mov EAX,[COUNT]
   345 00000208 40                      inc EAX
   346 00000209 A3[00000000]            mov [COUNT],EAX
   347                                 
   348                                 
   349 0000020E A1[00000000]            mov EAX,[COUNT]
   350 00000213 C1E002                  sal EAX,2
   351 00000216 05[00000000]            add EAX,LIST
   352 0000021B A3[00000000]            mov [T1Z],EAX
   353 00000220 A1[00000000]            mov EAX,[INDEX]
   354 00000225 89C2                    mov EDX,EAX
   355 00000227 A1[00000000]            mov EAX,[T1Z]
   356 0000022C 8910                    mov [EAX],EDX
   357                                 
   358                                 LJ4:
   359                                 
   360                                 
   361                                 
   362 0000022E 68[00000000]            push SCRCH
   363 00000233 68[00000000]            push BUFF
   364 00000238 E8(F6FFFFFF)            call READ
   365 0000023D 83C408                  add ESP,4*2
   366 00000240 A3[00000000]            mov [STATUS],EAX
   367                                 
   368 00000245 E9DAFDFFFF              jmp LJ2
   369                                 LJ3:
   370                                 
   371                                 
   372 0000024A 89EC                    mov ESP,EBP
   373 0000024C 5D                      pop EBP
   374 0000024D C3                      ret
   375                                 
   376                                 [section .data]
   377                                 T1Z:
   378 000003E8 00000000<rept>          times 2 dd 0
   379                                 [section .text]
   380                                 
   381                                 
   382                                 [section .data]
   383                                 HEADER:
   384 000003F0 26000000                dd 38
   385 000003F4 53000000                dd 83
   386 000003F8 79000000                dd 121
   387 000003FC 6D000000                dd 109
   388 00000400 62000000                dd 98
   389 00000404 6F000000                dd 111
   390 00000408 6C000000                dd 108
   391 0000040C 20000000                dd 32
   392 00000410 20000000                dd 32
   393 00000414 20000000                dd 32
   394 00000418 20000000                dd 32
   395 0000041C 20000000                dd 32
   396 00000420 20000000                dd 32
   397 00000424 20000000                dd 32
   398 00000428 49000000                dd 73
   399 0000042C 6E000000                dd 110
   400 00000430 64000000                dd 100
   401 00000434 65000000                dd 101
   402 00000438 78000000                dd 120
   403 0000043C 20000000                dd 32
   404 00000440 20000000                dd 32
   405 00000444 20000000                dd 32
   406 00000448 20000000                dd 32
   407 0000044C 20000000                dd 32
   408 00000450 20000000                dd 32
   409 00000454 20000000                dd 32
   410 00000458 56000000                dd 86
   411 0000045C 41000000                dd 65
   412 00000460 4C000000                dd 76
   413 00000464 20000000                dd 32
   414 00000468 20000000                dd 32
   415 0000046C 20000000                dd 32
   416 00000470 20000000                dd 32
   417 00000474 20000000                dd 32
   418 00000478 20000000                dd 32
   419 0000047C 20000000                dd 32
   420 00000480 54000000                dd 84
   421 00000484 41000000                dd 65
   422 00000488 47000000                dd 71
   423                                 
   424                                 HEAD1:
   425 0000048C 00000000<rept>          times 41 dd 0
   426                                 
   427                                 HEAD2:
   428 00000530 28000000                dd 40
   429 00000534 20000000                dd 32
   430 00000538 20000000                dd 32
   431 0000053C 20000000                dd 32
   432 00000540 20000000                dd 32
   433 00000544 20000000                dd 32
   434 00000548 54000000                dd 84
   435 0000054C 54000000                dd 84
   436 00000550 59000000                dd 89
   437 00000554 50000000                dd 80
   438 00000558 45000000                dd 69
   439 0000055C 20000000                dd 32
   440 00000560 20000000                dd 32
   441 00000564 20000000                dd 32
   442 00000568 20000000                dd 32
   443 0000056C 20000000                dd 32
   444 00000570 20000000                dd 32
   445 00000574 54000000                dd 84
   446 00000578 41000000                dd 65
   447 0000057C 47000000                dd 71
   448 00000580 53000000                dd 83
   449 00000584 20000000                dd 32
   450 00000588 20000000                dd 32
   451 0000058C 20000000                dd 32
   452 00000590 20000000                dd 32
   453 00000594 20000000                dd 32
   454 00000598 20000000                dd 32
   455 0000059C 20000000                dd 32
   456 000005A0 20000000                dd 32
   457 000005A4 4F000000                dd 79
   458 000005A8 50000000                dd 80
   459 000005AC 20000000                dd 32
   460 000005B0 20000000                dd 32
   461 000005B4 20000000                dd 32
   462 000005B8 20000000                dd 32
   463 000005BC 20000000                dd 32
   464 000005C0 54000000                dd 84
   465 000005C4 4B000000                dd 75
   466 000005C8 49000000                dd 73
   467 000005CC 4E000000                dd 78
   468 000005D0 44000000                dd 68
   469                                 
   470                                 TKIND:
   471 000005D4 00000000                times 1 dd 0
   472                                 
   473                                 
   474                                 
   475                                 [section .text]
   476                                 
   477                                 DMPLIST:
   478 0000024E 55                      push EBP
   479 0000024F 89E5                    mov EBP,ESP
   480                                 
   481                                 
   482                                 
   483                                 
   484 00000251 68[00000000]            push HEADER
   485 00000256 68[00000000]            push HEAD2
   486 0000025B E8(F6FFFFFF)            call CAT2
   487 00000260 83C408                  add ESP,4*2
   488                                 
   489                                 
   490 00000263 68[00000000]            push OUTCH
   491 00000268 68[00000000]            push HEADER
   492 0000026D E8(F6FFFFFF)            call WRITE
   493 00000272 83C408                  add ESP,4*2
   494                                 
   495                                 
   496 00000275 B801000000              mov EAX,1
   497 0000027A A3[00000000]            mov [I],EAX
   498                                 
   499                                 LJ18:
   500                                 
   501 0000027F A1[00000000]            mov EAX,[I]
   502 00000284 2B05[00000000]          sub EAX,[COUNT]
   503 0000028A 0F8F12020000            jg LJ19
   504                                 
   505                                 
   506 00000290 A1[00000000]            mov EAX,[I]
   507 00000295 C1E002                  sal EAX,2
   508 00000298 05[00000000]            add EAX,LIST
   509 0000029D 8B00                    mov EAX,[EAX]
   510 0000029F A3[00000000]            mov [INDEX],EAX
   511                                 
   512                                 
   513 000002A4 68[00000000]            push INDEX
   514 000002A9 68[00000000]            push WORDS
   515 000002AE E8(F6FFFFFF)            call GETWRD
   516 000002B3 83C408                  add ESP,4*2
   517                                 
   518                                 
   519 000002B6 68[00000000]            push INDEX
   520 000002BB 68[00000000]            push VAL
   521 000002C0 68[00000000]            push TAG
   522 000002C5 E8(F6FFFFFF)            call GETS
   523 000002CA 83C40C                  add ESP,4*3
   524                                 
   525                                 
   526 000002CD A1[00000000]            mov EAX,[TAG]
   527 000002D2 25FF000000              and EAX,255
   528 000002D7 A3[00000000]            mov [TKIND],EAX
   529                                 
   530                                 
   531 000002DC A1[00000000]            mov EAX,[TAG]
   532 000002E1 C1F808                  sar EAX,8
   533 000002E4 A3[00000000]            mov [TTYPE],EAX
   534                                 
   535                                 
   536 000002E9 A1[00000000]            mov EAX,[TTYPE]
   537 000002EE C1F804                  sar EAX,4
   538 000002F1 A3[00000000]            mov [TAGS],EAX
   539                                 
   540                                 
   541 000002F6 A1[00000000]            mov EAX,[TTYPE]
   542 000002FB 83E00F                  and EAX,15
   543 000002FE A3[00000000]            mov [TTYPE],EAX
   544                                 
   545                                 
   546 00000303 A1[00000000]            mov EAX,[VAL]
   547 00000308 25FF000000              and EAX,255
   548 0000030D A3[00000000]            mov [OP],EAX
   549                                 
   550                                 
   551 00000312 B800000000              mov EAX,0
   552 00000317 A3[00000000]            mov [BUFF],EAX
   553                                 
   554                                 
   555 0000031C 68[00000000]            push BUFF
   556 00000321 68[00000000]            push BLANKS
   557 00000326 E8(F6FFFFFF)            call CAT2
   558 0000032B 83C408                  add ESP,4*2
   559                                 
   560                                 
   561 0000032E B800000000              mov EAX,0
   562 00000333 A3[00000000]            mov [BUFF],EAX
   563                                 
   564                                 
   565 00000338 A1[00000000]            mov EAX,[TAGS]
   566 0000033D 83E001                  and EAX,1
   567 00000340 09C0                    or EAX,EAX
   568 00000342 7428                    jz LJ23
   569                                 
   570                                 
   571 00000344 B801000000              mov EAX,1
   572 00000349 C1E002                  sal EAX,2
   573 0000034C 05[00000000]            add EAX,BUFF
   574 00000351 A3[00000000]            mov [T3Z1],EAX
   575 00000356 A1[00000000]            mov EAX,[WORDS]
   576                                 
   577 0000035B 99                      cdq
   578 0000035C B93D000000              mov ECX,61
   579 00000361 F7F9                    idiv dword ECX
   580 00000363 89C2                    mov EDX,EAX
   581 00000365 A1[00000000]            mov EAX,[T3Z1]
   582 0000036A 8910                    mov [EAX],EDX
   583                                 
   584 0000036C EB10                    jmp LJ24
   585                                 LJ23:
   586                                 
   587                                 
   588 0000036E 68[00000000]            push WORDS
   589 00000373 68[00000000]            push BUFF
   590 00000378 E8(F6FFFFFF)            call B402A
   591 0000037D 83C408                  add ESP,4*2
   592                                 
   593                                 LJ24:
   594                                 
   595                                 
   596 00000380 B808000000              mov EAX,8
   597 00000385 A3[00000000]            mov [BUFF],EAX
   598                                 
   599                                 
   600 0000038A 68[00000000]            push INDEX
   601 0000038F 68[00000000]            push SCRATCH
   602 00000394 E8(F6FFFFFF)            call IFORM
   603 00000399 83C408                  add ESP,4*2
   604                                 
   605                                 
   606 0000039C 68[00000000]            push BUFF
   607 000003A1 68[00000000]            push SCRATCH
   608 000003A6 E8(F6FFFFFF)            call CAT2
   609 000003AB 83C408                  add ESP,4*2
   610                                 
   611                                 
   612 000003AE 68[00000000]            push VAL
   613 000003B3 68[00000000]            push SCRATCH
   614 000003B8 E8(F6FFFFFF)            call IFORM
   615 000003BD 83C408                  add ESP,4*2
   616                                 
   617                                 
   618 000003C0 68[00000000]            push BUFF
   619 000003C5 68[00000000]            push SCRATCH
   620 000003CA E8(F6FFFFFF)            call CAT2
   621 000003CF 83C408                  add ESP,4*2
   622                                 
   623                                 
   624 000003D2 68[00000000]            push TAG
   625 000003D7 68[00000000]            push SCRATCH
   626 000003DC E8(F6FFFFFF)            call IFORM
   627 000003E1 83C408                  add ESP,4*2
   628                                 
   629                                 
   630 000003E4 68[00000000]            push BUFF
   631 000003E9 68[00000000]            push SCRATCH
   632 000003EE E8(F6FFFFFF)            call CAT2
   633 000003F3 83C408                  add ESP,4*2
   634                                 
   635                                 
   636 000003F6 68[00000000]            push TTYPE
   637 000003FB 68[00000000]            push SCRATCH
   638 00000400 E8(F6FFFFFF)            call IFORM
   639 00000405 83C408                  add ESP,4*2
   640                                 
   641                                 
   642 00000408 68[00000000]            push BUFF
   643 0000040D 68[00000000]            push SCRATCH
   644 00000412 E8(F6FFFFFF)            call CAT2
   645 00000417 83C408                  add ESP,4*2
   646                                 
   647                                 
   648 0000041A 68[00000000]            push TAGS
   649 0000041F 68[00000000]            push SCRATCH
   650 00000424 E8(F6FFFFFF)            call IFORM
   651 00000429 83C408                  add ESP,4*2
   652                                 
   653                                 
   654 0000042C 68[00000000]            push BUFF
   655 00000431 68[00000000]            push SCRATCH
   656 00000436 E8(F6FFFFFF)            call CAT2
   657 0000043B 83C408                  add ESP,4*2
   658                                 
   659                                 
   660 0000043E 68[00000000]            push OP
   661 00000443 68[00000000]            push SCRATCH
   662 00000448 E8(F6FFFFFF)            call IFORM
   663 0000044D 83C408                  add ESP,4*2
   664                                 
   665                                 
   666 00000450 68[00000000]            push BUFF
   667 00000455 68[00000000]            push SCRATCH
   668 0000045A E8(F6FFFFFF)            call CAT2
   669 0000045F 83C408                  add ESP,4*2
   670                                 
   671                                 
   672 00000462 68[00000000]            push TKIND
   673 00000467 68[00000000]            push SCRATCH
   674 0000046C E8(F6FFFFFF)            call IFORM
   675 00000471 83C408                  add ESP,4*2
   676                                 
   677                                 
   678 00000474 68[00000000]            push BUFF
   679 00000479 68[00000000]            push SCRATCH
   680 0000047E E8(F6FFFFFF)            call CAT2
   681 00000483 83C408                  add ESP,4*2
   682                                 
   683                                 
   684 00000486 68[00000000]            push OUTCH
   685 0000048B 68[00000000]            push BUFF
   686 00000490 E8(F6FFFFFF)            call WRITE
   687 00000495 83C408                  add ESP,4*2
   688                                 
   689                                 
   690                                 
   691 00000498 A1[00000000]            mov EAX,[I]
   692 0000049D 40                      inc EAX
   693 0000049E A3[00000000]            mov [I],EAX
   694                                 
   695 000004A3 E9D2FDFFFF              jmp LJ18
   696                                 LJ19:
   697                                 
   698                                 
   699                                 
   700 000004A8 68[00000000]            push COLLS
   701 000004AD 68[00000000]            push SCRATCH
   702 000004B2 E8(F6FFFFFF)            call IFORM
   703 000004B7 83C408                  add ESP,4*2
   704                                 
   705                                 
   706 000004BA B800000000              mov EAX,0
   707 000004BF A3[00000000]            mov [BUFF],EAX
   708                                 
   709                                 
   710 000004C4 68[00000000]            push BUFF
   711 000004C9 68[00000000]            push COLLISIONS
   712 000004CE E8(F6FFFFFF)            call CAT2
   713 000004D3 83C408                  add ESP,4*2
   714                                 
   715                                 
   716 000004D6 68[00000000]            push BUFF
   717 000004DB 68[00000000]            push SCRATCH
   718 000004E0 E8(F6FFFFFF)            call CAT2
   719 000004E5 83C408                  add ESP,4*2
   720                                 
   721                                 
   722 000004E8 68[00000000]            push OUTCH
   723 000004ED 68[00000000]            push BUFF
   724 000004F2 E8(F6FFFFFF)            call WRITE
   725 000004F7 83C408                  add ESP,4*2
   726                                 
   727                                 
   728                                 
   729 000004FA 89EC                    mov ESP,EBP
   730 000004FC 5D                      pop EBP
   731 000004FD C3                      ret
   732                                 
   733                                 [section .data]
   734                                 T3Z1:
   735 000005D8 00000000                times 1 dd 0
   736                                 [section .text]
   737                                 
   738                                  end
